(ipaginas.manejo.configuracion
Configuracion
p0
(dp1
S'capacidad'
p2
V1
p3
sS'ruido'
p4
V8
p5
sS'escala'
p6
V0.3
p7
sS'proximidad'
p8
V30
p9
sS'multiArchivo'
p10
VFalse
p11
sS'nombreArchivo'
p12
VGeo
p13
sb.