(ipaginas.manejo.reporte
Reporte
p0
(dp1
S'capacidad'
p2
V1
p3
sS'tiempo'
p4
S'0.29'
p5
sS'ruido'
p6
V8
p7
sS'conteo'
p8
I121
sS'escala'
p9
V0.3
p10
sS'proximidad'
p11
V30
p12
sS'multiArchivo'
p13
VFalse
p14
sS'ciclos'
p15
I0
sS'nombreArchivo'
p16
VGeo
p17
sb.